Certificate:
    Data:
        Version: 3 (0x2)
        Serial Number:
            dc:50:43:fb:4a:ee:5a:1f
    Signature Algorithm: sha256WithRSAEncryption
        Issuer: C=NL, ST=NA, L=Amsterdam, O=FF, OU=FF, CN=dev/emailAddress=kewin@frontend-freelance.com
        Validity
            Not Before: Jul 28 21:43:56 2018 GMT
            Not After : Aug 27 21:43:56 2018 GMT
        Subject: C=NL, ST=NA, L=Amsterdam, O=FF, OU=FF, CN=dev/emailAddress=kewin@frontend-freelance.com
        Subject Public Key Info:
            Public Key Algorithm: rsaEncryption
                Public-Key: (4096 bit)
                Modulus:
                    00:ad:b3:d4:22:d6:a5:f5:ab:d8:b0:5b:47:56:61:
                    2c:8a:07:e7:ac:f4:07:ce:fe:1f:9a:c2:4c:db:82:
                    1c:b9:22:91:42:58:c9:1c:8a:50:1e:af:ca:8f:1f:
                    0e:89:1a:53:72:6a:cb:09:48:11:a6:ad:7e:c2:f8:
                    45:e1:1b:19:ab:80:03:40:21:de:6b:93:e9:13:e0:
                    89:3a:a1:04:7e:c2:05:97:da:82:d4:49:20:64:06:
                    41:20:9a:32:ca:91:1c:4f:d2:68:5c:c6:ab:bc:8b:
                    3b:bc:5f:17:8f:ec:9c:2c:5d:7c:f7:96:35:b9:ee:
                    bf:6c:0b:58:ed:aa:69:d2:03:ca:9b:07:0b:72:09:
                    ad:39:32:cb:92:34:9f:36:d9:da:94:d8:80:ce:17:
                    7c:d1:9b:31:b0:19:19:82:47:e1:84:2d:35:9f:57:
                    f4:92:2e:ab:c6:91:f7:a8:af:dc:40:c7:a7:32:5b:
                    d0:d4:27:b6:78:28:ae:f2:77:83:af:58:bc:4c:7b:
                    f5:e9:5a:c7:dc:6e:82:9f:7b:16:3a:7d:b2:c0:de:
                    17:ce:8a:a9:60:5a:5c:83:9f:51:0e:e7:77:fb:a2:
                    41:0b:16:fe:a9:89:e4:e6:65:89:39:0e:e8:e1:f7:
                    67:57:cf:7c:ee:17:13:77:9a:fa:69:78:64:20:09:
                    e0:1e:48:54:2e:5e:16:84:c8:df:d3:e5:a4:5b:c9:
                    3c:b2:af:60:f6:1d:e0:e3:ed:eb:69:e2:fb:2d:26:
                    f0:8e:9e:aa:79:6b:0a:a5:4a:ca:18:ff:ed:38:0f:
                    7d:93:46:5f:10:54:e3:69:ce:92:4f:64:59:4e:3a:
                    b5:1c:07:36:69:3a:75:0f:46:60:2c:cd:3b:ba:c5:
                    bb:60:d2:2b:91:b7:16:e8:f1:5d:d4:c6:1f:0a:a2:
                    1e:51:64:97:08:4a:4d:be:57:02:79:9a:b7:c9:6e:
                    5c:e1:0d:d0:1c:f3:51:a6:65:0c:2f:26:0d:7e:3a:
                    be:c0:c4:e0:db:06:81:fe:0b:49:d4:de:39:7c:9d:
                    b6:ec:60:3a:96:03:12:62:f8:1b:93:c9:74:cc:2a:
                    6d:39:af:af:3c:4e:d7:cc:e3:59:e1:36:79:e9:f1:
                    53:85:93:76:eb:45:25:fa:f1:c3:83:61:18:2e:76:
                    79:9a:c6:7d:20:fd:0f:ac:05:c9:27:db:7d:10:2f:
                    a8:a5:77:7f:40:e7:f8:4d:e3:8c:6b:a6:fa:86:7d:
                    27:cf:4e:d8:29:cf:dd:cc:29:97:45:53:6f:1a:60:
                    73:72:71:e8:be:5d:34:61:0d:25:d1:08:28:e0:27:
                    fc:27:08:1d:5a:b0:11:6f:f1:2a:e7:e5:02:47:bc:
                    96:f7:b7
                Exponent: 65537 (0x10001)
        X509v3 extensions:
            X509v3 Subject Key Identifier: 
                90:5B:83:C7:04:33:2E:30:87:98:A1:74:E8:D8:BC:93:E0:52:BA:89
            X509v3 Authority Key Identifier: 
                keyid:90:5B:83:C7:04:33:2E:30:87:98:A1:74:E8:D8:BC:93:E0:52:BA:89

            X509v3 Basic Constraints: 
                CA:TRUE
    Signature Algorithm: sha256WithRSAEncryption
         64:3b:74:ab:75:06:3b:0d:a0:ca:27:9a:ac:30:ea:77:5c:a4:
         c1:fa:54:5d:c0:96:66:82:11:ac:c4:ad:a1:f0:14:2a:df:7a:
         e3:fc:c2:8b:7d:62:4a:e2:bf:e2:f9:50:f5:1e:47:d8:3a:e1:
         27:36:13:47:46:70:61:ca:7e:36:e5:de:36:31:73:e3:32:40:
         93:ba:48:97:35:3f:f5:e4:f5:3e:6d:78:d0:b8:7e:b6:32:61:
         ea:76:ef:88:98:39:2a:d8:1d:ff:2c:58:06:4b:3d:05:c2:8b:
         b8:53:d7:76:ad:98:68:3f:d0:d4:13:d6:58:b9:6b:02:80:e5:
         53:e0:cc:86:57:5b:f6:d2:8c:04:9e:32:62:ce:9c:3b:86:82:
         d7:9e:40:af:21:84:bf:ad:76:eb:4f:ce:b7:44:d3:7d:38:f0:
         43:f9:8b:89:b2:20:48:fa:2e:eb:1f:f6:b3:18:ed:ea:db:2c:
         21:79:d8:af:eb:65:cb:a9:d8:d0:2a:30:3a:22:dd:7e:df:df:
         11:53:ee:b2:3b:44:92:b1:57:85:37:ed:f1:83:02:51:b7:e7:
         78:de:7c:23:3d:e3:88:a8:ff:21:1a:9a:67:6a:c8:8f:d1:c1:
         dc:e3:7d:47:6a:5a:53:e9:ee:31:aa:67:59:20:0b:34:14:b9:
         7a:e0:b0:dc:36:c6:ce:7f:b9:ac:3a:a7:24:e1:52:69:33:29:
         4e:35:8c:cb:d0:d2:ec:40:83:86:af:3f:13:c3:75:f4:34:89:
         d1:98:8f:bd:aa:37:04:1e:04:51:bd:30:17:44:a7:ac:bb:b8:
         fb:2d:c7:66:e8:31:81:a8:45:8d:02:e8:2f:6a:8a:a8:0a:f9:
         b6:d1:63:dd:42:26:dd:d7:2a:d4:65:27:db:b4:2e:e6:cd:ad:
         f1:70:66:07:72:60:be:fc:47:7a:51:3f:09:48:dc:12:99:d3:
         4f:c1:13:3a:ba:07:d2:5c:8f:9d:0d:32:56:2f:32:12:78:3b:
         f6:d8:48:ea:78:d7:57:65:1c:9a:fe:18:77:16:31:36:c5:74:
         5b:98:3b:33:d5:93:ba:11:30:8c:4a:7f:69:dc:a2:05:c8:36:
         10:35:30:24:43:44:24:93:7b:c8:66:7d:c3:30:a4:2f:aa:23:
         b2:fe:6f:b6:2c:69:c5:7a:54:68:c1:3c:d3:73:58:81:c5:bf:
         20:6b:fa:60:bc:21:f1:e3:3a:0e:1d:0d:a0:9f:ac:bb:94:2e:
         eb:1b:f0:db:b3:e8:ad:b0:64:ec:f9:86:c7:d6:19:85:c8:35:
         da:d8:8d:8e:7f:f8:4f:a4:29:fc:78:91:41:bd:5d:3c:e4:1d:
         49:d3:0d:09:e1:22:f8:ef
-----BEGIN CERTIFICATE-----
MIIF2zCCA8OgAwIBAgIJANxQQ/tK7lofMA0GCSqGSIb3DQEBCwUAMIGDMQswCQYD
VQQGEwJOTDELMAkGA1UECAwCTkExEjAQBgNVBAcMCUFtc3RlcmRhbTELMAkGA1UE
CgwCRkYxCzAJBgNVBAsMAkZGMQwwCgYDVQQDDANkZXYxKzApBgkqhkiG9w0BCQEW
HGtld2luQGZyb250ZW5kLWZyZWVsYW5jZS5jb20wHhcNMTgwNzI4MjE0MzU2WhcN
MTgwODI3MjE0MzU2WjCBgzELMAkGA1UEBhMCTkwxCzAJBgNVBAgMAk5BMRIwEAYD
VQQHDAlBbXN0ZXJkYW0xCzAJBgNVBAoMAkZGMQswCQYDVQQLDAJGRjEMMAoGA1UE
AwwDZGV2MSswKQYJKoZIhvcNAQkBFhxrZXdpbkBmcm9udGVuZC1mcmVlbGFuY2Uu
Y29tMIICIjANBgkqhkiG9w0BAQEFAAOCAg8AMIICCgKCAgEArbPUItal9avYsFtH
VmEsigfnrPQHzv4fmsJM24IcuSKRQljJHIpQHq/Kjx8OiRpTcmrLCUgRpq1+wvhF
4RsZq4ADQCHea5PpE+CJOqEEfsIFl9qC1EkgZAZBIJoyypEcT9JoXMarvIs7vF8X
j+ycLF1895Y1ue6/bAtY7app0gPKmwcLcgmtOTLLkjSfNtnalNiAzhd80ZsxsBkZ
gkfhhC01n1f0ki6rxpH3qK/cQMenMlvQ1Ce2eCiu8neDr1i8THv16VrH3G6Cn3sW
On2ywN4XzoqpYFpcg59RDud3+6JBCxb+qYnk5mWJOQ7o4fdnV8987hcTd5r6aXhk
IAngHkhULl4WhMjf0+WkW8k8sq9g9h3g4+3raeL7LSbwjp6qeWsKpUrKGP/tOA99
k0ZfEFTjac6ST2RZTjq1HAc2aTp1D0ZgLM07usW7YNIrkbcW6PFd1MYfCqIeUWSX
CEpNvlcCeZq3yW5c4Q3QHPNRpmUMLyYNfjq+wMTg2waB/gtJ1N45fJ227GA6lgMS
Yvgbk8l0zCptOa+vPE7XzONZ4TZ56fFThZN260Ul+vHDg2EYLnZ5msZ9IP0PrAXJ
J9t9EC+opXd/QOf4TeOMa6b6hn0nz07YKc/dzCmXRVNvGmBzcnHovl00YQ0l0Qgo
4Cf8JwgdWrARb/Eq5+UCR7yW97cCAwEAAaNQME4wHQYDVR0OBBYEFJBbg8cEMy4w
h5ihdOjYvJPgUrqJMB8GA1UdIwQYMBaAFJBbg8cEMy4wh5ihdOjYvJPgUrqJMAwG
A1UdEwQFMAMBAf8wDQYJKoZIhvcNAQELBQADggIBAGQ7dKt1BjsNoMonmqww6ndc
pMH6VF3AlmaCEazEraHwFCrfeuP8wot9Ykriv+L5UPUeR9g64Sc2E0dGcGHKfjbl
3jYxc+MyQJO6SJc1P/Xk9T5teNC4frYyYep274iYOSrYHf8sWAZLPQXCi7hT13at
mGg/0NQT1li5awKA5VPgzIZXW/bSjASeMmLOnDuGgteeQK8hhL+tdutPzrdE0304
8EP5i4myIEj6Lusf9rMY7erbLCF52K/rZcup2NAqMDoi3X7f3xFT7rI7RJKxV4U3
7fGDAlG353jefCM944io/yEammdqyI/RwdzjfUdqWlPp7jGqZ1kgCzQUuXrgsNw2
xs5/uaw6pyThUmkzKU41jMvQ0uxAg4avPxPDdfQ0idGYj72qNwQeBFG9MBdEp6y7
uPstx2boMYGoRY0C6C9qiqgK+bbRY91CJt3XKtRlJ9u0LubNrfFwZgdyYL78R3pR
PwlI3BKZ00/BEzq6B9Jcj50NMlYvMhJ4O/bYSOp411dlHJr+GHcWMTbFdFuYOzPV
k7oRMIxKf2ncogXINhA1MCRDRCSTe8hmfcMwpC+qI7L+b7YsacV6VGjBPNNzWIHF
vyBr+mC8IfHjOg4dDaCfrLuULusb8Nuz6K2wZOz5hsfWGYXINdrYjY5/+E+kKfx4
kUG9XTzkHUnTDQnhIvjv
-----END CERTIFICATE-----
